target datalayout = "e-m:e-p270:32:32-p271:32:32-p272:64:64-i64:64-i128:128-f80:128-n8:16:32:64-S128"
target triple = "x86_64-pc-linux-gnu"

; Function Attrs: mustprogress uwtable
define noundef zeroext i1 @_ZN16FilterDockDialog19isFilterPreviewableEP12FilterPluginPK7QAction(ptr noundef %0, ptr noundef %1) #5 align 2 {
  %3 = alloca i1, align 1
  %4 = alloca ptr, align 8
  %5 = alloca ptr, align 8
  %6 = alloca i32, align 4
  store ptr %0, ptr %4, align 8
  store ptr %1, ptr %5, align 8
  %7 = load ptr, ptr %4, align 8
  %8 = load ptr, ptr %5, align 8
  %9 = load ptr, ptr %7, align 8
  %10 = getelementptr inbounds ptr, ptr %9, i64 9
  %11 = load ptr, ptr %10, align 8
  %12 = call noundef i32 %11(ptr noundef nonnull align 8 dereferenceable(64) %7, ptr noundef %8)
  store i32 %12, ptr %6, align 4
  %13 = load ptr, ptr %5, align 8
  %14 = icmp eq ptr %13, null
  br i1 %14, label %26, label %15

15:                                               ; preds = %2
  %16 = load ptr, ptr %4, align 8
  %17 = icmp eq ptr %16, null
  br i1 %17, label %26, label %18

18:                                               ; preds = %15
  %19 = load ptr, ptr %4, align 8
  %20 = load ptr, ptr %5, align 8
  %21 = load ptr, ptr %19, align 8
  %22 = getelementptr inbounds ptr, ptr %21, i64 13
  %23 = load ptr, ptr %22, align 8
  %24 = call noundef i32 %23(ptr noundef nonnull align 8 dereferenceable(64) %19, ptr noundef %20)
  %25 = icmp ne i32 %24, 1
  br i1 %25, label %26, label %27

26:                                               ; preds = %18, %15, %2
  store i1 false, ptr %3, align 1
  br label %44

27:                                               ; preds = %18
  %28 = load i32, ptr %6, align 4
  %29 = icmp eq i32 %28, -2147483648
  br i1 %29, label %33, label %30

30:                                               ; preds = %27
  %31 = load i32, ptr %6, align 4
  %32 = icmp eq i32 %31, 0
  br i1 %32, label %33, label %34

33:                                               ; preds = %30, %27
  store i1 false, ptr %3, align 1
  br label %44

34:                                               ; preds = %30
  %35 = load i32, ptr %6, align 4
  %36 = and i32 %35, 2048
  %37 = icmp ne i32 %36, 0
  br i1 %37, label %42, label %38

38:                                               ; preds = %34
  %39 = load i32, ptr %6, align 4
  %40 = and i32 %39, 524288
  %41 = icmp ne i32 %40, 0
  br i1 %41, label %42, label %43

42:                                               ; preds = %38, %34
  store i1 false, ptr %3, align 1
  br label %44

43:                                               ; preds = %38
  store i1 true, ptr %3, align 1
  br label %44

44:                                               ; preds = %43, %42, %33, %26
  %45 = load i1, ptr %3, align 1
  ret i1 %45
}