; Function Attrs: mustprogress uwtable
define noundef zeroext i1 @_ZN16FilterDockDialog19isFilterPreviewableEP12FilterPluginPK7QAction(ptr noundef %0, ptr noundef %1) local_unnamed_addr #9 align 2 {
  %3 = load ptr, ptr %0, align 8
  %4 = getelementptr inbounds i8, ptr %3, i64 72
  %5 = load ptr, ptr %4, align 8
  %6 = tail call noundef i32 %5(ptr noundef nonnull align 8 dereferenceable(64) %0, ptr noundef %1)
  %7 = icmp eq ptr %1, null
  br i1 %7, label %16, label %8

8:                                                ; preds = %2
  %9 = load ptr, ptr %0, align 8
  %10 = getelementptr inbounds i8, ptr %9, i64 104
  %11 = load ptr, ptr %10, align 8
  %12 = tail call noundef i32 %11(ptr noundef nonnull align 8 dereferenceable(64) %0, ptr noundef nonnull %1)
  %.not = icmp ne i32 %12, 1
  %13 = and i32 %6, 2147483647
  %or.cond3 = icmp eq i32 %13, 0
  %or.cond17 = or i1 %or.cond3, %.not
  br i1 %or.cond17, label %16, label %14

14:                                               ; preds = %8
  %15 = and i32 %6, 526336
  %or.cond = icmp eq i32 %15, 0
  br label %16

16:                                               ; preds = %14, %2, %8
  %.0 = phi i1 [ false, %8 ], [ false, %2 ], [ %or.cond, %14 ]
  ret i1 %.0
}